target datalayout = "e-m:e-p270:32:32-p271:32:32-p272:64:64-i64:64-i128:128-f80:128-n8:16:32:64-S128"
target triple = "x86_64-pc-linux-gnu"

%struct.SDL_WaylandSeat = type { ptr, ptr, ptr, ptr, ptr, %struct.wl_list, i32, i32, %struct.anon, %struct.anon.1, %struct.anon.4, %struct.anon.5, %struct.anon.6 }
%struct.wl_list = type { ptr, ptr }
%struct.anon = type { ptr, ptr, ptr, ptr, ptr, %struct.SDL_WaylandKeyboardRepeat, i64, i16, i16, i32, i8, %struct.anon.0 }
%struct.SDL_WaylandKeyboardRepeat = type { i32, i32, i32, i8, i8, i32, i64, i64, i64, i32, [8 x i8] }
%struct.anon.0 = type { ptr, ptr, ptr, ptr, i32, i32, i32, i32, i32, i32, i32, i32, i32, i32, i32 }
%struct.anon.1 = type { ptr, ptr, ptr, ptr, ptr, ptr, ptr, ptr, i64, i32, i32, %struct.SDL_Point, i32, %struct.anon.2, %struct.anon.3 }
%struct.SDL_Point = type { i32, i32 }
%struct.anon.2 = type { i32, float, i32, float, i64, i32 }
%struct.anon.3 = type { ptr, ptr, ptr, i64, i64, i32 }
%struct.anon.4 = type { ptr, ptr, i64, %struct.wl_list }
%struct.anon.5 = type { ptr, %struct.SDL_Rect, i8, i8 }
%struct.SDL_Rect = type { i32, i32, i32, i32 }
%struct.anon.6 = type { ptr, %struct.wl_list }

@Wayland_EventTimestampMSToNS.timestamp_offset = internal global i64 0, align 8
@Wayland_EventTimestampMSToNS.last = internal global i32 0, align 4
@Wayland_AdjustEventTimestampBase.timestamp_offset = internal global i64 0, align 8

; Function Attrs: nounwind uwtable
define internal i64 @Wayland_AdjustEventTimestampBase(i64 noundef %0) #0 {
  %2 = alloca i64, align 8
  %3 = alloca i64, align 8
  store i64 %0, ptr %2, align 8
  call void @llvm.lifetime.start.p0(i64 8, ptr %3) #10
  %4 = call i64 @SDL_GetTicksNS_REAL()
  store i64 %4, ptr %3, align 8
  %5 = load i64, ptr @Wayland_AdjustEventTimestampBase.timestamp_offset, align 8
  %6 = icmp ne i64 %5, 0
  br i1 %6, label %11, label %7

7:                                                ; preds = %1
  %8 = load i64, ptr %3, align 8
  %9 = load i64, ptr %2, align 8
  %10 = sub i64 %8, %9
  store i64 %10, ptr @Wayland_AdjustEventTimestampBase.timestamp_offset, align 8
  br label %11

11:                                               ; preds = %7, %1
  %12 = load i64, ptr @Wayland_AdjustEventTimestampBase.timestamp_offset, align 8
  %13 = load i64, ptr %2, align 8
  %14 = add i64 %13, %12
  store i64 %14, ptr %2, align 8
  %15 = load i64, ptr %2, align 8
  %16 = load i64, ptr %3, align 8
  %17 = icmp ugt i64 %15, %16
  br i1 %17, label %18, label %25

18:                                               ; preds = %11
  %19 = load i64, ptr %2, align 8
  %20 = load i64, ptr %3, align 8
  %21 = sub i64 %19, %20
  %22 = load i64, ptr @Wayland_AdjustEventTimestampBase.timestamp_offset, align 8
  %23 = sub i64 %22, %21
  store i64 %23, ptr @Wayland_AdjustEventTimestampBase.timestamp_offset, align 8
  %24 = load i64, ptr %3, align 8
  store i64 %24, ptr %2, align 8
  br label %25

25:                                               ; preds = %18, %11
  %26 = load i64, ptr %2, align 8
  call void @llvm.lifetime.end.p0(i64 8, ptr %3) #10
  ret i64 %26
}

; Function Attrs: nounwind uwtable
define internal i64 @Wayland_EventTimestampMSToNS(i32 noundef %0) #0 {
  %2 = alloca i32, align 4
  store i32 %0, ptr %2, align 4
  %3 = load i32, ptr %2, align 4
  %4 = load i32, ptr @Wayland_EventTimestampMSToNS.last, align 4
  %5 = icmp ult i32 %3, %4
  br i1 %5, label %6, label %9

6:                                                ; preds = %1
  %7 = load i64, ptr @Wayland_EventTimestampMSToNS.timestamp_offset, align 8
  %8 = add i64 %7, 4294967296000000
  store i64 %8, ptr @Wayland_EventTimestampMSToNS.timestamp_offset, align 8
  br label %9

9:                                                ; preds = %6, %1
  %10 = load i32, ptr %2, align 4
  store i32 %10, ptr @Wayland_EventTimestampMSToNS.last, align 4
  %11 = load i32, ptr %2, align 4
  %12 = zext i32 %11 to i64
  %13 = mul i64 %12, 1000000
  %14 = load i64, ptr @Wayland_EventTimestampMSToNS.timestamp_offset, align 8
  %15 = add i64 %13, %14
  ret i64 %15
}

; Function Attrs: nounwind uwtable
define internal i64 @Wayland_GetPointerTimestamp(ptr noundef %0, i32 noundef %1) #0 {
  %3 = alloca ptr, align 8
  %4 = alloca i32, align 4
  %5 = alloca i64, align 8
  store ptr %0, ptr %3, align 8
  store i32 %1, ptr %4, align 4
  call void @llvm.lifetime.start.p0(i64 8, ptr %5) #10
  %6 = load i32, ptr %4, align 4
  %7 = call i64 @Wayland_EventTimestampMSToNS(i32 noundef %6)
  store i64 %7, ptr %5, align 8
  %8 = load ptr, ptr %3, align 8
  %9 = getelementptr inbounds nuw %struct.SDL_WaylandSeat, ptr %8, i32 0, i32 9
  %10 = getelementptr inbounds nuw %struct.anon.1, ptr %9, i32 0, i32 2
  %11 = load ptr, ptr %10, align 8
  %12 = icmp ne ptr %11, null
  br i1 %12, label %13, label %18

13:                                               ; preds = %2
  %14 = load ptr, ptr %3, align 8
  %15 = getelementptr inbounds nuw %struct.SDL_WaylandSeat, ptr %14, i32 0, i32 9
  %16 = getelementptr inbounds nuw %struct.anon.1, ptr %15, i32 0, i32 8
  %17 = load i64, ptr %16, align 8
  br label %20

18:                                               ; preds = %2
  %19 = load i64, ptr %5, align 8
  br label %20

20:                                               ; preds = %18, %13
  %21 = phi i64 [ %17, %13 ], [ %19, %18 ]
  %22 = call i64 @Wayland_AdjustEventTimestampBase(i64 noundef %21)
  call void @llvm.lifetime.end.p0(i64 8, ptr %5) #10
  ret i64 %22
}

; Function Attrs: nounwind uwtable
define internal void @pointer_handle_motion(ptr noundef %0, ptr noundef %1, i32 noundef %2, i32 noundef %3, i32 noundef %4) #0 {
  %6 = alloca ptr, align 8
  %7 = alloca ptr, align 8
  %8 = alloca i32, align 4
  %9 = alloca i32, align 4
  %10 = alloca i32, align 4
  %11 = alloca ptr, align 8
  store ptr %0, ptr %6, align 8
  store ptr %1, ptr %7, align 8
  store i32 %2, ptr %8, align 4
  store i32 %3, ptr %9, align 4
  store i32 %4, ptr %10, align 4
  call void @llvm.lifetime.start.p0(i64 8, ptr %11) #10
  %12 = load ptr, ptr %6, align 8
  store ptr %12, ptr %11, align 8
  %13 = load ptr, ptr %11, align 8
  %14 = load ptr, ptr %11, align 8
  %15 = load i32, ptr %8, align 4
  %16 = call i64 @Wayland_GetPointerTimestamp(ptr noundef %14, i32 noundef %15)
  %17 = load i32, ptr %9, align 4
  %18 = load i32, ptr %10, align 4
  call void @pointer_handle_motion_common(ptr noundef %13, i64 noundef %16, i32 noundef %17, i32 noundef %18)
  call void @llvm.lifetime.end.p0(i64 8, ptr %11) #10
  ret void
}