; Function Attrs: nounwind uwtable
define internal void @pointer_handle_motion(ptr noundef %0, ptr readnone captures(none) %1, i32 noundef %2, i32 noundef %3, i32 noundef %4) #0 {
  %6 = load i32, ptr @Wayland_EventTimestampMSToNS.last, align 4
  %7 = icmp ult i32 %2, %6
  %.pre.i.i = load i64, ptr @Wayland_EventTimestampMSToNS.timestamp_offset, align 8
  br i1 %7, label %8, label %Wayland_EventTimestampMSToNS.exit.i

8:                                                ; preds = %5
  %9 = add i64 %.pre.i.i, 4294967296000000
  store i64 %9, ptr @Wayland_EventTimestampMSToNS.timestamp_offset, align 8
  br label %Wayland_EventTimestampMSToNS.exit.i

Wayland_EventTimestampMSToNS.exit.i:              ; preds = %8, %5
  %10 = phi i64 [ %9, %8 ], [ %.pre.i.i, %5 ]
  store i32 %2, ptr @Wayland_EventTimestampMSToNS.last, align 4
  %11 = zext i32 %2 to i64
  %12 = mul nuw nsw i64 %11, 1000000
  %13 = add i64 %10, %12
  %14 = getelementptr inbounds nuw i8, ptr %0, i64 288
  %15 = load ptr, ptr %14, align 8
  %.not.i = icmp eq ptr %15, null
  br i1 %.not.i, label %19, label %16

16:                                               ; preds = %Wayland_EventTimestampMSToNS.exit.i
  %17 = getelementptr inbounds nuw i8, ptr %0, i64 336
  %18 = load i64, ptr %17, align 8
  br label %19

19:                                               ; preds = %16, %Wayland_EventTimestampMSToNS.exit.i
  %20 = phi i64 [ %18, %16 ], [ %13, %Wayland_EventTimestampMSToNS.exit.i ]
  %21 = tail call i64 @SDL_GetTicksNS_REAL() #12
  %22 = load i64, ptr @Wayland_AdjustEventTimestampBase.timestamp_offset, align 8
  %.not.not.i.i = icmp eq i64 %22, 0
  %23 = sub i64 %21, %20
  %24 = select i1 %.not.not.i.i, i64 %23, i64 %22
  %25 = add i64 %24, %20
  %.not.i.i = icmp ugt i64 %25, %21
  %26 = or i1 %.not.not.i.i, %.not.i.i
  br i1 %26, label %27, label %Wayland_GetPointerTimestamp.exit

27:                                               ; preds = %19
  %simplifycfg.merge.i.i = select i1 %.not.i.i, i64 %23, i64 %24
  store i64 %simplifycfg.merge.i.i, ptr @Wayland_AdjustEventTimestampBase.timestamp_offset, align 8
  br label %Wayland_GetPointerTimestamp.exit

Wayland_GetPointerTimestamp.exit:                 ; preds = %19, %27
  %.0.i.i = tail call i64 @llvm.umin.i64(i64 %25, i64 %21)
  tail call fastcc void @pointer_handle_motion_common(ptr noundef nonnull %0, i64 noundef %.0.i.i, i32 noundef %3, i32 noundef %4)
  ret void
}